target datalayout = "e-m:e-p270:32:32-p271:32:32-p272:64:64-i64:64-i128:128-f80:128-n8:16:32:64-S128"
target triple = "x86_64-pc-linux-gnu"

%struct._zval_struct = type { %union._zend_value, %union.anon.3, %union.anon.6 }
%union._zend_value = type { i64 }
%union.anon.3 = type { i32 }
%union.anon.6 = type { i32 }
%struct._zend_refcounted_h = type { i32, %union.anon }
%union.anon = type { i32 }
%struct._zend_string = type { %struct._zend_refcounted_h, i64, i64, [1 x i8] }
%struct._zend_execute_data = type { ptr, ptr, ptr, ptr, %struct._zval_struct, ptr, ptr, ptr, ptr }

@.str.28 = private unnamed_addr constant [3 x i8] c"%s\00", align 1

; Function Attrs: nounwind uwtable
define hidden void @zif_ini_parse_quantity(ptr noundef %0, ptr noundef %1) #0 {
  %3 = alloca ptr, align 8
  %4 = alloca ptr, align 8
  %5 = alloca i1, align 1
  %6 = alloca ptr, align 8
  %7 = alloca ptr, align 8
  %8 = alloca i8, align 1
  %9 = alloca i32, align 4
  %10 = alloca i8, align 1
  %11 = alloca ptr, align 8
  %12 = alloca i32, align 4
  %13 = alloca i32, align 4
  %14 = alloca ptr, align 8
  %15 = alloca ptr, align 8
  %16 = alloca i8, align 1
  %17 = alloca i32, align 4
  %18 = alloca ptr, align 8
  %19 = alloca ptr, align 8
  %20 = alloca ptr, align 8
  %21 = alloca ptr, align 8
  %22 = alloca ptr, align 8
  %23 = alloca i32, align 4
  %24 = alloca i32, align 4
  %25 = alloca i32, align 4
  %26 = alloca i32, align 4
  %27 = alloca i32, align 4
  %28 = alloca ptr, align 8
  %29 = alloca ptr, align 8
  %30 = alloca i32, align 4
  %31 = alloca ptr, align 8
  %32 = alloca i8, align 1
  %33 = alloca i8, align 1
  %34 = alloca i32, align 4
  %35 = alloca ptr, align 8
  store ptr %0, ptr %19, align 8
  store ptr %1, ptr %20, align 8
  br label %36

36:                                               ; preds = %2
  store i32 0, ptr %23, align 4
  store i32 1, ptr %24, align 4
  store i32 1, ptr %25, align 4
  %37 = load ptr, ptr %19, align 8
  %38 = getelementptr inbounds %struct._zend_execute_data, ptr %37, i32 0, i32 4
  %39 = getelementptr inbounds %struct._zval_struct, ptr %38, i32 0, i32 2
  %40 = load i32, ptr %39, align 4
  store i32 %40, ptr %26, align 4
  store i32 0, ptr %27, align 4
  store ptr null, ptr %29, align 8
  store i32 0, ptr %30, align 4
  store ptr null, ptr %31, align 8
  store i8 0, ptr %32, align 1
  store i8 0, ptr %33, align 1
  store i32 0, ptr %34, align 4
  br label %41

41:                                               ; preds = %36
  %42 = load i32, ptr %26, align 4
  %43 = load i32, ptr %24, align 4
  %44 = icmp ult i32 %42, %43
  %45 = xor i1 %44, true
  %46 = xor i1 %45, true
  %47 = zext i1 %46 to i32
  %48 = sext i32 %47 to i64
  %49 = icmp ne i64 %48, 0
  br i1 %49, label %59, label %50

50:                                               ; preds = %41
  %51 = load i32, ptr %26, align 4
  %52 = load i32, ptr %25, align 4
  %53 = icmp ugt i32 %51, %52
  %54 = xor i1 %53, true
  %55 = xor i1 %54, true
  %56 = zext i1 %55 to i32
  %57 = sext i32 %56 to i64
  %58 = icmp ne i64 %57, 0
  br i1 %58, label %59, label %62

59:                                               ; preds = %50, %41
  %60 = load i32, ptr %24, align 4
  %61 = load i32, ptr %25, align 4
  call void @zend_wrong_parameters_count_error(i32 noundef %60, i32 noundef %61)
  store i32 1, ptr %34, align 4
  br label %166

62:                                               ; preds = %50
  %63 = load ptr, ptr %19, align 8
  %64 = getelementptr inbounds %struct._zval_struct, ptr %63, i64 4
  store ptr %64, ptr %28, align 8
  %65 = load i32, ptr %27, align 4
  %66 = add i32 %65, 1
  store i32 %66, ptr %27, align 4
  %67 = load i32, ptr %27, align 4
  %68 = load i32, ptr %24, align 4
  %69 = icmp ule i32 %67, %68
  br i1 %69, label %75, label %70

70:                                               ; preds = %62
  %71 = load i8, ptr %33, align 1
  %72 = trunc i8 %71 to i1
  %73 = zext i1 %72 to i32
  %74 = icmp eq i32 %73, 1
  br label %75

75:                                               ; preds = %70, %62
  %76 = phi i1 [ true, %62 ], [ %74, %70 ]
  call void @llvm.assume(i1 %76)
  %77 = load i32, ptr %27, align 4
  %78 = load i32, ptr %24, align 4
  %79 = icmp ugt i32 %77, %78
  br i1 %79, label %85, label %80

80:                                               ; preds = %75
  %81 = load i8, ptr %33, align 1
  %82 = trunc i8 %81 to i1
  %83 = zext i1 %82 to i32
  %84 = icmp eq i32 %83, 0
  br label %85

85:                                               ; preds = %80, %75
  %86 = phi i1 [ true, %75 ], [ %84, %80 ]
  call void @llvm.assume(i1 %86)
  %87 = load i8, ptr %33, align 1
  %88 = trunc i8 %87 to i1
  br i1 %88, label %89, label %100

89:                                               ; preds = %85
  %90 = load i32, ptr %27, align 4
  %91 = load i32, ptr %26, align 4
  %92 = icmp ugt i32 %90, %91
  %93 = xor i1 %92, true
  %94 = xor i1 %93, true
  %95 = zext i1 %94 to i32
  %96 = sext i32 %95 to i64
  %97 = icmp ne i64 %96, 0
  br i1 %97, label %98, label %99

98:                                               ; preds = %89
  br label %166

99:                                               ; preds = %89
  br label %100

100:                                              ; preds = %99, %85
  %101 = load ptr, ptr %28, align 8
  %102 = getelementptr inbounds %struct._zval_struct, ptr %101, i32 1
  store ptr %102, ptr %28, align 8
  %103 = load ptr, ptr %28, align 8
  store ptr %103, ptr %29, align 8
  %104 = load ptr, ptr %29, align 8
  %105 = load i32, ptr %27, align 4
  store ptr %104, ptr %14, align 8
  store ptr %21, ptr %15, align 8
  store i8 0, ptr %16, align 1
  store i32 %105, ptr %17, align 4
  %106 = load ptr, ptr %14, align 8
  %107 = load ptr, ptr %15, align 8
  %108 = load i8, ptr %16, align 1
  %109 = trunc i8 %108 to i1
  %110 = load i32, ptr %17, align 4
  store ptr %106, ptr %6, align 8
  store ptr %107, ptr %7, align 8
  %111 = zext i1 %109 to i8
  store i8 %111, ptr %8, align 1
  store i32 %110, ptr %9, align 4
  store i8 0, ptr %10, align 1
  %112 = load ptr, ptr %6, align 8
  store ptr %112, ptr %3, align 8
  %113 = load ptr, ptr %3, align 8
  %114 = getelementptr inbounds %struct._zval_struct, ptr %113, i32 0, i32 1
  %115 = load i8, ptr %114, align 8
  %116 = zext i8 %115 to i32
  %117 = icmp eq i32 %116, 6
  br i1 %117, label %118, label %122

118:                                              ; preds = %100
  %119 = load ptr, ptr %6, align 8
  %120 = load ptr, ptr %119, align 8
  %121 = load ptr, ptr %7, align 8
  store ptr %120, ptr %121, align 8
  br label %147

122:                                              ; preds = %100
  %123 = load i8, ptr %8, align 1
  %124 = trunc i8 %123 to i1
  br i1 %124, label %125, label %134

125:                                              ; preds = %122
  %126 = load ptr, ptr %6, align 8
  store ptr %126, ptr %4, align 8
  %127 = load ptr, ptr %4, align 8
  %128 = getelementptr inbounds %struct._zval_struct, ptr %127, i32 0, i32 1
  %129 = load i8, ptr %128, align 8
  %130 = zext i8 %129 to i32
  %131 = icmp eq i32 %130, 1
  br i1 %131, label %132, label %134

132:                                              ; preds = %125
  %133 = load ptr, ptr %7, align 8
  store ptr null, ptr %133, align 8
  br label %147

134:                                              ; preds = %125, %122
  %135 = load i8, ptr %10, align 1
  %136 = trunc i8 %135 to i1
  br i1 %136, label %137, label %142

137:                                              ; preds = %134
  %138 = load ptr, ptr %6, align 8
  %139 = load ptr, ptr %7, align 8
  %140 = load i32, ptr %9, align 4
  %141 = call zeroext i1 @zend_flf_parse_arg_str_slow(ptr noundef %138, ptr noundef %139, i32 noundef %140) #12
  store i1 %141, ptr %5, align 1
  br label %148

142:                                              ; preds = %134
  %143 = load ptr, ptr %6, align 8
  %144 = load ptr, ptr %7, align 8
  %145 = load i32, ptr %9, align 4
  %146 = call zeroext i1 @zend_parse_arg_str_slow(ptr noundef %143, ptr noundef %144, i32 noundef %145) #12
  store i1 %146, ptr %5, align 1
  br label %148

147:                                              ; preds = %132, %118
  store i1 true, ptr %5, align 1
  br label %148

148:                                              ; preds = %147, %142, %137
  %149 = load i1, ptr %5, align 1
  %150 = xor i1 %149, true
  %151 = xor i1 %150, true
  %152 = xor i1 %151, true
  %153 = zext i1 %152 to i32
  %154 = sext i32 %153 to i64
  %155 = icmp ne i64 %154, 0
  br i1 %155, label %156, label %157

156:                                              ; preds = %148
  store i32 4, ptr %30, align 4
  store i32 9, ptr %34, align 4
  br label %166

157:                                              ; preds = %148
  %158 = load i32, ptr %27, align 4
  %159 = load i32, ptr %25, align 4
  %160 = icmp eq i32 %158, %159
  br i1 %160, label %164, label %161

161:                                              ; preds = %157
  %162 = load i32, ptr %25, align 4
  %163 = icmp eq i32 %162, -1
  br label %164

164:                                              ; preds = %161, %157
  %165 = phi i1 [ true, %157 ], [ %163, %161 ]
  call void @llvm.assume(i1 %165)
  br label %166

166:                                              ; preds = %164, %156, %98, %59
  %167 = load i32, ptr %34, align 4
  %168 = icmp ne i32 %167, 0
  %169 = xor i1 %168, true
  %170 = xor i1 %169, true
  %171 = zext i1 %170 to i32
  %172 = sext i32 %171 to i64
  %173 = icmp ne i64 %172, 0
  br i1 %173, label %174, label %180

174:                                              ; preds = %166
  %175 = load i32, ptr %34, align 4
  %176 = load i32, ptr %27, align 4
  %177 = load ptr, ptr %31, align 8
  %178 = load i32, ptr %30, align 4
  %179 = load ptr, ptr %29, align 8
  call void @zend_wrong_parameter_error(i32 noundef %175, i32 noundef %176, ptr noundef %177, i32 noundef %178, ptr noundef %179)
  br label %229

180:                                              ; preds = %166
  br label %181

181:                                              ; preds = %180
  br label %182

182:                                              ; preds = %181
  %183 = load ptr, ptr %20, align 8
  store ptr %183, ptr %35, align 8
  %184 = load ptr, ptr %21, align 8
  %185 = call i64 @zend_ini_parse_quantity(ptr noundef %184, ptr noundef %22)
  %186 = load ptr, ptr %35, align 8
  %187 = getelementptr inbounds %struct._zval_struct, ptr %186, i32 0, i32 0
  store i64 %185, ptr %187, align 8
  %188 = load ptr, ptr %35, align 8
  %189 = getelementptr inbounds %struct._zval_struct, ptr %188, i32 0, i32 1
  store i32 4, ptr %189, align 8
  br label %190

190:                                              ; preds = %182
  %191 = load ptr, ptr %22, align 8
  %192 = icmp ne ptr %191, null
  br i1 %192, label %193, label %229

193:                                              ; preds = %190
  %194 = load ptr, ptr %22, align 8
  %195 = getelementptr inbounds %struct._zend_string, ptr %194, i32 0, i32 3
  %196 = getelementptr inbounds [1 x i8], ptr %195, i64 0, i64 0
  call void (i32, ptr, ...) @zend_error(i32 noundef 2, ptr noundef @.str.28, ptr noundef %196)
  %197 = load ptr, ptr %22, align 8
  store ptr %197, ptr %18, align 8
  %198 = load ptr, ptr %18, align 8
  %199 = getelementptr inbounds %struct._zend_refcounted_h, ptr %198, i32 0, i32 1
  %200 = load i32, ptr %199, align 4
  store i32 %200, ptr %12, align 4
  %201 = load i32, ptr %12, align 4
  %202 = and i32 %201, 1008
  %203 = and i32 %202, 64
  %204 = icmp ne i32 %203, 0
  br i1 %204, label %228, label %205

205:                                              ; preds = %193
  %206 = load ptr, ptr %18, align 8
  store ptr %206, ptr %11, align 8
  %207 = load ptr, ptr %11, align 8
  %208 = load i32, ptr %207, align 4
  %209 = icmp ugt i32 %208, 0
  call void @llvm.assume(i1 %209)
  %210 = load ptr, ptr %11, align 8
  %211 = load i32, ptr %210, align 4
  %212 = add i32 %211, -1
  store i32 %212, ptr %210, align 4
  %213 = icmp eq i32 %212, 0
  br i1 %213, label %214, label %227

214:                                              ; preds = %205
  %215 = load ptr, ptr %18, align 8
  %216 = getelementptr inbounds %struct._zend_refcounted_h, ptr %215, i32 0, i32 1
  %217 = load i32, ptr %216, align 4
  store i32 %217, ptr %13, align 4
  %218 = load i32, ptr %13, align 4
  %219 = and i32 %218, 1008
  %220 = and i32 %219, 128
  %221 = icmp ne i32 %220, 0
  br i1 %221, label %222, label %224

222:                                              ; preds = %214
  %223 = load ptr, ptr %18, align 8
  call void @free(ptr noundef %223) #12
  br label %226

224:                                              ; preds = %214
  %225 = load ptr, ptr %18, align 8
  call void @_efree(ptr noundef %225) #12
  br label %226

226:                                              ; preds = %224, %222
  br label %227

227:                                              ; preds = %226, %205
  br label %228

228:                                              ; preds = %227, %193
  br label %229

229:                                              ; preds = %228, %190, %174
  ret void
}