; Function Attrs: nounwind uwtable
define hidden void @zif_ini_parse_quantity(ptr noundef %0, ptr nocapture noundef writeonly %1) #0 {
  %3 = alloca ptr, align 8
  %4 = alloca ptr, align 8
  %5 = getelementptr inbounds i8, ptr %0, i64 44
  %6 = load i32, ptr %5, align 4
  %cond = icmp eq i32 %6, 1
  br i1 %cond, label %8, label %7

7:                                                ; preds = %2
  tail call void @zend_wrong_parameters_count_error(i32 noundef 1, i32 noundef 1) #18
  br label %.thread97

8:                                                ; preds = %2
  %9 = getelementptr inbounds i8, ptr %0, i64 80
  %10 = getelementptr inbounds i8, ptr %0, i64 88
  %11 = load i8, ptr %10, align 8
  %12 = icmp eq i8 %11, 6
  br i1 %12, label %.thread86, label %14

.thread86:                                        ; preds = %8
  %13 = load ptr, ptr %9, align 8
  store ptr %13, ptr %3, align 8
  br label %.thread90

14:                                               ; preds = %8
  %15 = call zeroext i1 @zend_parse_arg_str_slow(ptr noundef nonnull %9, ptr noundef nonnull %3, i32 noundef 1) #18
  %.fr = freeze i1 %15
  br i1 %.fr, label %..thread90_crit_edge, label %.thread97

..thread90_crit_edge:                             ; preds = %14
  %.pre = load ptr, ptr %3, align 8
  br label %.thread90

.thread97:                                        ; preds = %14, %7
  %.062106 = phi i32 [ 1, %7 ], [ 9, %14 ]
  %.063105 = phi i32 [ 0, %7 ], [ 1, %14 ]
  %.064104 = phi ptr [ null, %7 ], [ %9, %14 ]
  %.065103 = phi i32 [ 0, %7 ], [ 4, %14 ]
  call void @zend_wrong_parameter_error(i32 noundef %.062106, i32 noundef %.063105, ptr noundef null, i32 noundef %.065103, ptr noundef %.064104) #18
  br label %35

.thread90:                                        ; preds = %..thread90_crit_edge, %.thread86
  %16 = phi ptr [ %.pre, %..thread90_crit_edge ], [ %13, %.thread86 ]
  %17 = call i64 @zend_ini_parse_quantity(ptr noundef %16, ptr noundef nonnull %4) #18
  store i64 %17, ptr %1, align 8
  %18 = getelementptr inbounds i8, ptr %1, i64 8
  store i32 4, ptr %18, align 8
  %19 = load ptr, ptr %4, align 8
  %.not70 = icmp eq ptr %19, null
  br i1 %.not70, label %35, label %20

20:                                               ; preds = %.thread90
  %21 = getelementptr inbounds i8, ptr %19, i64 24
  call void (i32, ptr, ...) @zend_error(i32 noundef 2, ptr noundef nonnull @.str.28, ptr noundef nonnull %21) #18
  %22 = load ptr, ptr %4, align 8
  %23 = getelementptr inbounds i8, ptr %22, i64 4
  %24 = load i32, ptr %23, align 4
  %25 = and i32 %24, 64
  %.not71 = icmp eq i32 %25, 0
  br i1 %.not71, label %26, label %35

26:                                               ; preds = %20
  %27 = load i32, ptr %22, align 4
  %28 = icmp ne i32 %27, 0
  call void @llvm.assume(i1 %28)
  %29 = add i32 %27, -1
  store i32 %29, ptr %22, align 4
  %30 = icmp eq i32 %29, 0
  br i1 %30, label %31, label %35

31:                                               ; preds = %26
  %32 = and i32 %24, 128
  %.not72 = icmp eq i32 %32, 0
  br i1 %.not72, label %34, label %33

33:                                               ; preds = %31
  call void @free(ptr noundef nonnull %22) #18
  br label %35

34:                                               ; preds = %31
  call void @_efree(ptr noundef nonnull %22) #18
  br label %35

35:                                               ; preds = %20, %33, %34, %26, %.thread90, %.thread97
  ret void
}